; Function Attrs: nounwind uwtable
define dso_local ptr @LookupTupleHashEntry(ptr noundef captures(none) initializes((72, 96)) %0, ptr noundef %1, ptr noundef writeonly captures(address_is_null) %2, ptr noundef writeonly captures(address_is_null) %3) local_unnamed_addr #0 {
  %5 = alloca i8, align 1
  %6 = alloca i8, align 1
  %7 = getelementptr inbounds nuw i8, ptr %0, i64 56
  %8 = load ptr, ptr %7, align 8
  %9 = load ptr, ptr @CurrentMemoryContext, align 8
  store ptr %8, ptr @CurrentMemoryContext, align 8
  %10 = getelementptr inbounds nuw i8, ptr %0, i64 72
  store ptr %1, ptr %10, align 8
  %11 = getelementptr inbounds nuw i8, ptr %0, i64 24
  %12 = load ptr, ptr %11, align 8
  %13 = getelementptr inbounds nuw i8, ptr %0, i64 80
  store ptr %12, ptr %13, align 8
  %14 = getelementptr inbounds nuw i8, ptr %0, i64 32
  %15 = load ptr, ptr %14, align 8
  %16 = getelementptr inbounds nuw i8, ptr %0, i64 88
  store ptr %15, ptr %16, align 8
  %17 = load ptr, ptr %0, align 8
  %18 = getelementptr i8, ptr %17, i64 40
  %.val = load ptr, ptr %18, align 8
  call void @llvm.lifetime.start.p0(i64 1, ptr nonnull %6) #15
  %19 = getelementptr inbounds nuw i8, ptr %.val, i64 96
  %20 = load ptr, ptr %19, align 8
  %21 = getelementptr inbounds nuw i8, ptr %20, i64 16
  %22 = getelementptr inbounds nuw i8, ptr %.val, i64 72
  %23 = load ptr, ptr %22, align 8
  store ptr %23, ptr %21, align 8
  %24 = getelementptr inbounds nuw i8, ptr %.val, i64 80
  %25 = load ptr, ptr %24, align 8
  %26 = load ptr, ptr %19, align 8
  %27 = getelementptr inbounds nuw i8, ptr %25, i64 32
  %28 = load ptr, ptr %27, align 8
  %29 = call i64 %28(ptr noundef %25, ptr noundef %26, ptr noundef nonnull %6) #15
  %.0.i = trunc i64 %29 to i32
  %30 = lshr i32 %.0.i, 16
  %31 = xor i32 %30, %.0.i
  %32 = mul i32 %31, -2048144789
  %33 = lshr i32 %32, 13
  %34 = xor i32 %33, %32
  %35 = mul i32 %34, -1028477387
  %36 = lshr i32 %35, 16
  %37 = xor i32 %36, %35
  call void @llvm.lifetime.end.p0(i64 1, ptr nonnull %6) #15
  call void @llvm.lifetime.start.p0(i64 1, ptr nonnull %5) #15
  %.not.i = icmp eq ptr %2, null
  %38 = load ptr, ptr %0, align 8
  br i1 %.not.i, label %53, label %39

39:                                               ; preds = %4
  %40 = call fastcc ptr @tuplehash_insert_hash_internal(ptr noundef %38, ptr noundef null, i32 noundef %37, ptr noundef nonnull %5)
  %41 = load i8, ptr %5, align 1, !range !15, !noundef !16
  %42 = trunc nuw i8 %41 to i1
  br i1 %42, label %43, label %44

43:                                               ; preds = %39
  store i8 0, ptr %2, align 1
  br label %LookupTupleHashEntry_internal.exit

44:                                               ; preds = %39
  store i8 1, ptr %2, align 1
  %45 = getelementptr inbounds nuw i8, ptr %40, i64 8
  store ptr null, ptr %45, align 8
  %46 = getelementptr inbounds nuw i8, ptr %0, i64 48
  %47 = load ptr, ptr %46, align 8
  store ptr %47, ptr @CurrentMemoryContext, align 8
  %48 = getelementptr inbounds nuw i8, ptr %1, i64 8
  %49 = load ptr, ptr %48, align 8
  %50 = getelementptr inbounds nuw i8, ptr %49, i64 96
  %51 = load ptr, ptr %50, align 8
  %52 = call ptr %51(ptr noundef %1) #15
  store ptr %52, ptr %40, align 8
  br label %LookupTupleHashEntry_internal.exit

53:                                               ; preds = %4
  %54 = call ptr @tuplehash_lookup_hash(ptr noundef %38, ptr poison, i32 noundef %37)
  br label %LookupTupleHashEntry_internal.exit

LookupTupleHashEntry_internal.exit:               ; preds = %43, %44, %53
  %.0.i16 = phi ptr [ %40, %43 ], [ %40, %44 ], [ %54, %53 ]
  call void @llvm.lifetime.end.p0(i64 1, ptr nonnull %5) #15
  %.not = icmp eq ptr %3, null
  br i1 %.not, label %56, label %55

55:                                               ; preds = %LookupTupleHashEntry_internal.exit
  store i32 %37, ptr %3, align 4
  br label %56

56:                                               ; preds = %55, %LookupTupleHashEntry_internal.exit
  store ptr %9, ptr @CurrentMemoryContext, align 8
  ret ptr %.0.i16
}